; ModuleID = '22/499.c'
source_filename = "22/499.c"
target datalayout = "e-m:e-p270:32:32-p271:32:32-p272:64:64-i64:64-f80:128-n8:16:32:64-S128"
target triple = "x86_64-pc-linux-gnu"

@.str = private unnamed_addr constant [3 x i8] c"%d\00", align 1
@.str.1 = private unnamed_addr constant [3 x i8] c"No\00", align 1
@.str.2 = private unnamed_addr constant [2 x i8] c"\0A\00", align 1

; Function Attrs: noinline nounwind uwtable
define dso_local void @main() #0 {
  %1 = alloca i32, align 4
  %2 = alloca i32, align 4
  %3 = alloca i32, align 4
  %4 = alloca i32, align 4
  %5 = alloca i32, align 4
  %6 = alloca [300 x i32], align 16
  store i32 0, i32* %2, align 4
  store i32 1, i32* %1, align 4
  br label %7

7:                                                ; preds = %16, %0
  %8 = load i32, i32* %1, align 4
  %9 = sext i32 %8 to i64
  %10 = getelementptr inbounds [300 x i32], [300 x i32]* %6, i64 0, i64 %9
  %11 = call i32 (i8*, ...) @__isoc99_scanf(i8* getelementptr inbounds ([3 x i8], [3 x i8]* @.str, i64 0, i64 0), i32* %10)
  %12 = call i32 @getchar()
  %13 = icmp ne i32 %12, 44
  br i1 %13, label %14, label %15

14:                                               ; preds = %7
  br label %19

15:                                               ; preds = %7
  br label %16

16:                                               ; preds = %15
  %17 = load i32, i32* %1, align 4
  %18 = add nsw i32 %17, 1
  store i32 %18, i32* %1, align 4
  br label %7

19:                                               ; preds = %14
  store i32 1, i32* %3, align 4
  br label %20

20:                                               ; preds = %66, %19
  %21 = load i32, i32* %3, align 4
  %22 = load i32, i32* %1, align 4
  %23 = icmp slt i32 %21, %22
  br i1 %23, label %24, label %69

24:                                               ; preds = %20
  store i32 1, i32* %4, align 4
  br label %25

25:                                               ; preds = %62, %24
  %26 = load i32, i32* %4, align 4
  %27 = load i32, i32* %1, align 4
  %28 = add nsw i32 %27, 1
  %29 = load i32, i32* %3, align 4
  %30 = sub nsw i32 %28, %29
  %31 = icmp slt i32 %26, %30
  br i1 %31, label %32, label %65

32:                                               ; preds = %25
  %33 = load i32, i32* %4, align 4
  %34 = sext i32 %33 to i64
  %35 = getelementptr inbounds [300 x i32], [300 x i32]* %6, i64 0, i64 %34
  %36 = load i32, i32* %35, align 4
  %37 = load i32, i32* %4, align 4
  %38 = add nsw i32 %37, 1
  %39 = sext i32 %38 to i64
  %40 = getelementptr inbounds [300 x i32], [300 x i32]* %6, i64 0, i64 %39
  %41 = load i32, i32* %40, align 4
  %42 = icmp sgt i32 %36, %41
  br i1 %42, label %43, label %61

43:                                               ; preds = %32
  %44 = load i32, i32* %4, align 4
  %45 = add nsw i32 %44, 1
  %46 = sext i32 %45 to i64
  %47 = getelementptr inbounds [300 x i32], [300 x i32]* %6, i64 0, i64 %46
  %48 = load i32, i32* %47, align 4
  store i32 %48, i32* %5, align 4
  %49 = load i32, i32* %4, align 4
  %50 = sext i32 %49 to i64
  %51 = getelementptr inbounds [300 x i32], [300 x i32]* %6, i64 0, i64 %50
  %52 = load i32, i32* %51, align 4
  %53 = load i32, i32* %4, align 4
  %54 = add nsw i32 %53, 1
  %55 = sext i32 %54 to i64
  %56 = getelementptr inbounds [300 x i32], [300 x i32]* %6, i64 0, i64 %55
  store i32 %52, i32* %56, align 4
  %57 = load i32, i32* %5, align 4
  %58 = load i32, i32* %4, align 4
  %59 = sext i32 %58 to i64
  %60 = getelementptr inbounds [300 x i32], [300 x i32]* %6, i64 0, i64 %59
  store i32 %57, i32* %60, align 4
  br label %61

61:                                               ; preds = %43, %32
  br label %62

62:                                               ; preds = %61
  %63 = load i32, i32* %4, align 4
  %64 = add nsw i32 %63, 1
  store i32 %64, i32* %4, align 4
  br label %25

65:                                               ; preds = %25
  br label %66

66:                                               ; preds = %65
  %67 = load i32, i32* %3, align 4
  %68 = add nsw i32 %67, 1
  store i32 %68, i32* %3, align 4
  br label %20

69:                                               ; preds = %20
  store i32 1, i32* %3, align 4
  br label %70

70:                                               ; preds = %89, %69
  %71 = load i32, i32* %3, align 4
  %72 = load i32, i32* %1, align 4
  %73 = icmp slt i32 %71, %72
  br i1 %73, label %74, label %92

74:                                               ; preds = %70
  %75 = load i32, i32* %3, align 4
  %76 = sext i32 %75 to i64
  %77 = getelementptr inbounds [300 x i32], [300 x i32]* %6, i64 0, i64 %76
  %78 = load i32, i32* %77, align 4
  %79 = load i32, i32* %3, align 4
  %80 = add nsw i32 %79, 1
  %81 = sext i32 %80 to i64
  %82 = getelementptr inbounds [300 x i32], [300 x i32]* %6, i64 0, i64 %81
  %83 = load i32, i32* %82, align 4
  %84 = icmp eq i32 %78, %83
  br i1 %84, label %85, label %88

85:                                               ; preds = %74
  %86 = load i32, i32* %2, align 4
  %87 = add nsw i32 %86, 1
  store i32 %87, i32* %2, align 4
  br label %88

88:                                               ; preds = %85, %74
  br label %89

89:                                               ; preds = %88
  %90 = load i32, i32* %3, align 4
  %91 = add nsw i32 %90, 1
  store i32 %91, i32* %3, align 4
  br label %70

92:                                               ; preds = %70
  %93 = load i32, i32* %2, align 4
  %94 = load i32, i32* %1, align 4
  %95 = sub nsw i32 %94, 1
  %96 = icmp eq i32 %93, %95
  br i1 %96, label %97, label %99

97:                                               ; preds = %92
  %98 = call i32 (i8*, ...) @printf(i8* getelementptr inbounds ([3 x i8], [3 x i8]* @.str.1, i64 0, i64 0))
  br label %124

99:                                               ; preds = %92
  %100 = load i32, i32* %1, align 4
  %101 = sub nsw i32 %100, 1
  store i32 %101, i32* %3, align 4
  br label %102

102:                                              ; preds = %120, %99
  %103 = load i32, i32* %3, align 4
  %104 = sext i32 %103 to i64
  %105 = getelementptr inbounds [300 x i32], [300 x i32]* %6, i64 0, i64 %104
  %106 = load i32, i32* %105, align 4
  %107 = load i32, i32* %3, align 4
  %108 = add nsw i32 %107, 1
  %109 = sext i32 %108 to i64
  %110 = getelementptr inbounds [300 x i32], [300 x i32]* %6, i64 0, i64 %109
  %111 = load i32, i32* %110, align 4
  %112 = icmp slt i32 %106, %111
  br i1 %112, label %113, label %119

113:                                              ; preds = %102
  %114 = load i32, i32* %3, align 4
  %115 = sext i32 %114 to i64
  %116 = getelementptr inbounds [300 x i32], [300 x i32]* %6, i64 0, i64 %115
  %117 = load i32, i32* %116, align 4
  %118 = call i32 (i8*, ...) @printf(i8* getelementptr inbounds ([3 x i8], [3 x i8]* @.str, i64 0, i64 0), i32 %117)
  br label %123

119:                                              ; preds = %102
  br label %120

120:                                              ; preds = %119
  %121 = load i32, i32* %3, align 4
  %122 = add nsw i32 %121, -1
  store i32 %122, i32* %3, align 4
  br label %102

123:                                              ; preds = %113
  br label %124

124:                                              ; preds = %123, %97
  %125 = call i32 (i8*, ...) @printf(i8* getelementptr inbounds ([2 x i8], [2 x i8]* @.str.2, i64 0, i64 0))
  ret void
}

declare dso_local i32 @__isoc99_scanf(i8*, ...) #1

declare dso_local i32 @getchar() #1

declare dso_local i32 @printf(i8*, ...) #1


!llvm.module.flags = !{!0}
!llvm.ident = !{!1}

!0 = !{i32 1, !"wchar_size", i32 4}
!1 = !{!"clang version 10.0.0-4ubuntu1 "}
